; Function Attrs: mustprogress uwtable
define void @_ZN10MainWindow25viewFromCurrentRasterShotEv(ptr noundef nonnull align 8 dereferenceable(1376) %0) local_unnamed_addr #9 align 2 personality ptr @__gxx_personality_v0 {
  %2 = alloca %class.QString, align 8
  %3 = getelementptr inbounds i8, ptr %0, i64 1368
  %4 = load ptr, ptr %3, align 8
  %.not.i = icmp eq ptr %4, null
  br i1 %.not.i, label %_ZN7QStringD2Ev.exit, label %_ZNK10MainWindow3GLAEv.exit

_ZNK10MainWindow3GLAEv.exit:                      ; preds = %1
  %5 = getelementptr inbounds i8, ptr %4, i64 256
  %6 = load ptr, ptr %5, align 8
  %.not = icmp eq ptr %6, null
  br i1 %.not, label %_ZN7QStringD2Ev.exit, label %_ZNK10MainWindow3GLAEv.exit4

_ZNK10MainWindow3GLAEv.exit4:                     ; preds = %_ZNK10MainWindow3GLAEv.exit
  %7 = tail call noundef ptr @_ZN7QString16fromAscii_helperEPKci(ptr noundef nonnull @.str.27, i32 noundef 6)
  store ptr %7, ptr %2, align 8
  invoke void @_ZN6GLArea19viewFromCurrentShotE7QString(ptr noundef nonnull align 8 dereferenceable(1676) %6, ptr noundef nonnull %2)
          to label %8 unwind label %13

8:                                                ; preds = %_ZNK10MainWindow3GLAEv.exit4
  %9 = load ptr, ptr %2, align 8
  %10 = load atomic i32, ptr %9 monotonic, align 4
  switch i32 %10, label %_ZN9QtPrivate8RefCount5derefEv.exit.i [
    i32 0, label %_ZN9QtPrivate8RefCount5derefEv.exit.thread2.i
    i32 -1, label %_ZN7QStringD2Ev.exit
  ]

_ZN9QtPrivate8RefCount5derefEv.exit.i:            ; preds = %8
  %11 = atomicrmw sub ptr %9, i32 1 seq_cst, align 4
  %.not.i5 = icmp eq i32 %11, 1
  br i1 %.not.i5, label %_ZN9QtPrivate8RefCount5derefEv.exit._ZN9QtPrivate8RefCount5derefEv.exit.thread2_crit_edge.i, label %_ZN7QStringD2Ev.exit

_ZN9QtPrivate8RefCount5derefEv.exit._ZN9QtPrivate8RefCount5derefEv.exit.thread2_crit_edge.i: ; preds = %_ZN9QtPrivate8RefCount5derefEv.exit.i
  %.pre.i = load ptr, ptr %2, align 8
  br label %_ZN9QtPrivate8RefCount5derefEv.exit.thread2.i

_ZN9QtPrivate8RefCount5derefEv.exit.thread2.i:    ; preds = %_ZN9QtPrivate8RefCount5derefEv.exit._ZN9QtPrivate8RefCount5derefEv.exit.thread2_crit_edge.i, %8
  %12 = phi ptr [ %.pre.i, %_ZN9QtPrivate8RefCount5derefEv.exit._ZN9QtPrivate8RefCount5derefEv.exit.thread2_crit_edge.i ], [ %9, %8 ]
  call void @_ZN10QArrayData10deallocateEPS_mm(ptr noundef %12, i64 noundef 2, i64 noundef 8) #26
  br label %_ZN7QStringD2Ev.exit

13:                                               ; preds = %_ZNK10MainWindow3GLAEv.exit4
  %14 = landingpad { ptr, i32 }
          cleanup
  call void @_ZN7QStringD2Ev(ptr noundef nonnull align 8 dereferenceable(8) %2) #26
  resume { ptr, i32 } %14

_ZN7QStringD2Ev.exit:                             ; preds = %1, %_ZN9QtPrivate8RefCount5derefEv.exit.thread2.i, %_ZN9QtPrivate8RefCount5derefEv.exit.i, %8, %_ZNK10MainWindow3GLAEv.exit
  call void @_ZN10MainWindow11updateMenusEv(ptr noundef nonnull align 8 dereferenceable(1376) %0)
  ret void
}